target datalayout = "e-m:e-p270:32:32-p271:32:32-p272:64:64-i64:64-i128:128-f80:128-n8:16:32:64-S128"
target triple = "x86_64-pc-linux-gnu"

%"class.icu_77::SpoofImpl" = type <{ %"class.icu_77::UObject", %"class.icu_77::IcuCApiHelper", i32, ptr, ptr, ptr, i32, [4 x i8] }>
%"class.icu_77::UObject" = type { ptr }
%"class.icu_77::IcuCApiHelper" = type { i32 }
%"class.icu_77::SpoofData" = type { ptr, i8, ptr, i32, %"struct.std::atomic", ptr, ptr, ptr }
%"struct.std::atomic" = type { %"struct.std::__atomic_base" }
%"struct.std::__atomic_base" = type { i32 }

@_ZTVN6icu_779SpoofImplE = unnamed_addr constant { [5 x ptr] } { [5 x ptr] [ptr null, ptr @_ZTIN6icu_779SpoofImplE, ptr @_ZN6icu_779SpoofImplD1Ev, ptr @_ZN6icu_779SpoofImplD0Ev, ptr @_ZNK6icu_779SpoofImpl17getDynamicClassIDEv] }, align 8
@_ZTVN6icu_777UObjectE = available_externally unnamed_addr constant { [5 x ptr] } { [5 x ptr] [ptr null, ptr @_ZTIN6icu_777UObjectE, ptr @_ZN6icu_777UObjectD1Ev, ptr @_ZN6icu_777UObjectD0Ev, ptr @_ZNK6icu_777UObject17getDynamicClassIDEv] }, align 8

; Function Attrs: alwaysinline mustprogress nounwind uwtable
define linkonce_odr noundef i32 @_ZNSt13__atomic_baseIiE9fetch_addEiSt12memory_order(ptr noundef nonnull align 4 dereferenceable(4) %0, i32 noundef %1, i32 noundef %2) #14 comdat align 2 {
  %4 = alloca ptr, align 8
  %5 = alloca i32, align 4
  %6 = alloca i32, align 4
  %7 = alloca i32, align 4
  %8 = alloca i32, align 4
  store ptr %0, ptr %4, align 8, !tbaa !106
  store i32 %1, ptr %5, align 4, !tbaa !48
  store i32 %2, ptr %6, align 4, !tbaa !130
  %9 = load ptr, ptr %4, align 8
  %10 = getelementptr inbounds nuw %"struct.std::__atomic_base", ptr %9, i32 0, i32 0
  %11 = load i32, ptr %6, align 4, !tbaa !130
  %12 = load i32, ptr %5, align 4, !tbaa !48
  store i32 %12, ptr %7, align 4, !tbaa !48
  switch i32 %11, label %13 [
    i32 1, label %16
    i32 2, label %16
    i32 3, label %19
    i32 4, label %22
    i32 5, label %25
  ]

13:                                               ; preds = %3
  %14 = load i32, ptr %7, align 4
  %15 = atomicrmw add ptr %10, i32 %14 monotonic, align 4
  store i32 %15, ptr %8, align 4
  br label %28

16:                                               ; preds = %3, %3
  %17 = load i32, ptr %7, align 4
  %18 = atomicrmw add ptr %10, i32 %17 acquire, align 4
  store i32 %18, ptr %8, align 4
  br label %28

19:                                               ; preds = %3
  %20 = load i32, ptr %7, align 4
  %21 = atomicrmw add ptr %10, i32 %20 release, align 4
  store i32 %21, ptr %8, align 4
  br label %28

22:                                               ; preds = %3
  %23 = load i32, ptr %7, align 4
  %24 = atomicrmw add ptr %10, i32 %23 acq_rel, align 4
  store i32 %24, ptr %8, align 4
  br label %28

25:                                               ; preds = %3
  %26 = load i32, ptr %7, align 4
  %27 = atomicrmw add ptr %10, i32 %26 seq_cst, align 4
  store i32 %27, ptr %8, align 4
  br label %28

28:                                               ; preds = %25, %22, %19, %16, %13
  %29 = load i32, ptr %8, align 4, !tbaa !48
  ret i32 %29
}

; Function Attrs: inlinehint mustprogress nounwind uwtable
define linkonce_odr noundef i32 @_ZN6icu_7715umtx_atomic_incEPSt6atomicIiE(ptr noundef %0) #2 comdat {
  %2 = alloca ptr, align 8
  store ptr %0, ptr %2, align 8, !tbaa !108
  %3 = load ptr, ptr %2, align 8, !tbaa !108
  %4 = call noundef i32 @_ZNSt13__atomic_baseIiE9fetch_addEiSt12memory_order(ptr noundef nonnull align 4 dereferenceable(4) %3, i32 noundef 1, i32 noundef 5) #15
  %5 = add nsw i32 %4, 1
  ret i32 %5
}

; Function Attrs: mustprogress uwtable
define noundef ptr @_ZN6icu_779SpoofData12addReferenceEv(ptr noundef nonnull align 8 dereferenceable(56) %0) #1 align 2 {
  %2 = alloca ptr, align 8
  store ptr %0, ptr %2, align 8, !tbaa !8
  %3 = load ptr, ptr %2, align 8
  %4 = getelementptr inbounds nuw %"class.icu_77::SpoofData", ptr %3, i32 0, i32 4
  %5 = call noundef i32 @_ZN6icu_7715umtx_atomic_incEPSt6atomicIiE(ptr noundef %4)
  ret ptr %3
}

; Function Attrs: mustprogress nounwind uwtable
define linkonce_odr void @_ZN6icu_7713IcuCApiHelperI13USpoofCheckerNS_9SpoofImplELi944111087EED2Ev(ptr noundef nonnull align 4 dereferenceable(4) %0) unnamed_addr #0 comdat align 2 {
  %2 = alloca ptr, align 8
  store ptr %0, ptr %2, align 8, !tbaa !23
  %3 = load ptr, ptr %2, align 8
  %4 = getelementptr inbounds nuw %"class.icu_77::IcuCApiHelper", ptr %3, i32 0, i32 0
  store i32 0, ptr %4, align 4, !tbaa !25
  ret void
}

; Function Attrs: inlinehint mustprogress nounwind uwtable
define internal noundef signext i8 @_ZL9U_FAILURE10UErrorCode(i32 noundef %0) #2 {
  %2 = alloca i32, align 4
  store i32 %0, ptr %2, align 4, !tbaa !30
  %3 = load i32, ptr %2, align 4, !tbaa !30
  %4 = icmp sgt i32 %3, 0
  %5 = zext i1 %4 to i8
  ret i8 %5
}

; Function Attrs: inlinehint mustprogress nounwind uwtable
define linkonce_odr void @_ZN6icu_7713IcuCApiHelperI13USpoofCheckerNS_9SpoofImplELi944111087EEC2Ev(ptr noundef nonnull align 4 dereferenceable(4) %0) unnamed_addr #2 comdat align 2 {
  %2 = alloca ptr, align 8
  store ptr %0, ptr %2, align 8, !tbaa !23
  %3 = load ptr, ptr %2, align 8
  %4 = getelementptr inbounds nuw %"class.icu_77::IcuCApiHelper", ptr %3, i32 0, i32 0
  store i32 944111087, ptr %4, align 4, !tbaa !25
  ret void
}

; Function Attrs: inlinehint mustprogress nounwind uwtable
define linkonce_odr void @_ZN6icu_777UObjectC2Ev(ptr noundef nonnull align 8 dereferenceable(8) %0) unnamed_addr #2 comdat align 2 {
  %2 = alloca ptr, align 8
  store ptr %0, ptr %2, align 8, !tbaa !21
  %3 = load ptr, ptr %2, align 8
  store ptr getelementptr inbounds inrange(-16, 24) ({ [5 x ptr] }, ptr @_ZTVN6icu_777UObjectE, i32 0, i32 0, i32 2), ptr %3, align 8, !tbaa !11
  ret void
}

; Function Attrs: mustprogress uwtable
define void @_ZN6icu_779SpoofImplC2ERKS0_R10UErrorCode(ptr noundef nonnull align 8 dereferenceable(44) %0, ptr noundef nonnull align 8 dereferenceable(44) %1, ptr noundef nonnull align 4 dereferenceable(4) %2) unnamed_addr #1 align 2 personality ptr @__gxx_personality_v0 {
  %4 = alloca ptr, align 8
  %5 = alloca ptr, align 8
  %6 = alloca ptr, align 8
  %7 = alloca ptr, align 8
  %8 = alloca i32, align 4
  store ptr %0, ptr %4, align 8, !tbaa !3
  store ptr %1, ptr %5, align 8, !tbaa !3
  store ptr %2, ptr %6, align 8, !tbaa !10
  %9 = load ptr, ptr %4, align 8
  call void @_ZN6icu_777UObjectC2Ev(ptr noundef nonnull align 8 dereferenceable(8) %9) #15
  %10 = getelementptr inbounds i8, ptr %9, i64 8
  call void @_ZN6icu_7713IcuCApiHelperI13USpoofCheckerNS_9SpoofImplELi944111087EEC2Ev(ptr noundef nonnull align 4 dereferenceable(4) %10) #15
  store ptr getelementptr inbounds inrange(-16, 24) ({ [5 x ptr] }, ptr @_ZTVN6icu_779SpoofImplE, i32 0, i32 0, i32 2), ptr %9, align 8, !tbaa !11
  %11 = getelementptr inbounds nuw %"class.icu_77::SpoofImpl", ptr %9, i32 0, i32 2
  store i32 65535, ptr %11, align 4, !tbaa !26
  %12 = getelementptr inbounds nuw %"class.icu_77::SpoofImpl", ptr %9, i32 0, i32 3
  store ptr null, ptr %12, align 8, !tbaa !13
  %13 = getelementptr inbounds nuw %"class.icu_77::SpoofImpl", ptr %9, i32 0, i32 4
  store ptr null, ptr %13, align 8, !tbaa !27
  %14 = getelementptr inbounds nuw %"class.icu_77::SpoofImpl", ptr %9, i32 0, i32 5
  store ptr null, ptr %14, align 8, !tbaa !28
  %15 = load ptr, ptr %6, align 8, !tbaa !10
  %16 = load i32, ptr %15, align 4, !tbaa !30
  %17 = invoke noundef signext i8 @_ZL9U_FAILURE10UErrorCode(i32 noundef %16)
          to label %18 unwind label %21

18:                                               ; preds = %3
  %19 = icmp ne i8 %17, 0
  br i1 %19, label %20, label %26

20:                                               ; preds = %18
  br label %69

21:                                               ; preds = %47, %42, %35, %3
  %22 = landingpad { ptr, i32 }
          cleanup
  %23 = extractvalue { ptr, i32 } %22, 0
  store ptr %23, ptr %7, align 8
  %24 = extractvalue { ptr, i32 } %22, 1
  store i32 %24, ptr %8, align 4
  %25 = getelementptr inbounds i8, ptr %9, i64 8
  call void @_ZN6icu_7713IcuCApiHelperI13USpoofCheckerNS_9SpoofImplELi944111087EED2Ev(ptr noundef nonnull align 4 dereferenceable(4) %25) #15
  call void @_ZN6icu_777UObjectD2Ev(ptr noundef nonnull align 8 dereferenceable(8) %9) #15
  br label %70

26:                                               ; preds = %18
  %27 = load ptr, ptr %5, align 8, !tbaa !3
  %28 = getelementptr inbounds nuw %"class.icu_77::SpoofImpl", ptr %27, i32 0, i32 2
  %29 = load i32, ptr %28, align 4, !tbaa !26
  %30 = getelementptr inbounds nuw %"class.icu_77::SpoofImpl", ptr %9, i32 0, i32 2
  store i32 %29, ptr %30, align 4, !tbaa !26
  %31 = load ptr, ptr %5, align 8, !tbaa !3
  %32 = getelementptr inbounds nuw %"class.icu_77::SpoofImpl", ptr %31, i32 0, i32 3
  %33 = load ptr, ptr %32, align 8, !tbaa !13
  %34 = icmp ne ptr %33, null
  br i1 %34, label %35, label %42

35:                                               ; preds = %26
  %36 = load ptr, ptr %5, align 8, !tbaa !3
  %37 = getelementptr inbounds nuw %"class.icu_77::SpoofImpl", ptr %36, i32 0, i32 3
  %38 = load ptr, ptr %37, align 8, !tbaa !13
  %39 = invoke noundef ptr @_ZN6icu_779SpoofData12addReferenceEv(ptr noundef nonnull align 8 dereferenceable(56) %38)
          to label %40 unwind label %21

40:                                               ; preds = %35
  %41 = getelementptr inbounds nuw %"class.icu_77::SpoofImpl", ptr %9, i32 0, i32 3
  store ptr %39, ptr %41, align 8, !tbaa !13
  br label %42

42:                                               ; preds = %40, %26
  %43 = load ptr, ptr %5, align 8, !tbaa !3
  %44 = getelementptr inbounds nuw %"class.icu_77::SpoofImpl", ptr %43, i32 0, i32 4
  %45 = load ptr, ptr %44, align 8, !tbaa !27
  %46 = invoke noundef ptr @_ZNK6icu_7710UnicodeSet5cloneEv(ptr noundef nonnull align 8 dereferenceable(200) %45)
          to label %47 unwind label %21

47:                                               ; preds = %42
  %48 = getelementptr inbounds nuw %"class.icu_77::SpoofImpl", ptr %9, i32 0, i32 4
  store ptr %46, ptr %48, align 8, !tbaa !27
  %49 = load ptr, ptr %5, align 8, !tbaa !3
  %50 = getelementptr inbounds nuw %"class.icu_77::SpoofImpl", ptr %49, i32 0, i32 5
  %51 = load ptr, ptr %50, align 8, !tbaa !28
  %52 = invoke ptr @uprv_strdup_77(ptr noundef %51)
          to label %53 unwind label %21

53:                                               ; preds = %47
  %54 = getelementptr inbounds nuw %"class.icu_77::SpoofImpl", ptr %9, i32 0, i32 5
  store ptr %52, ptr %54, align 8, !tbaa !28
  %55 = getelementptr inbounds nuw %"class.icu_77::SpoofImpl", ptr %9, i32 0, i32 4
  %56 = load ptr, ptr %55, align 8, !tbaa !27
  %57 = icmp eq ptr %56, null
  br i1 %57, label %62, label %58

58:                                               ; preds = %53
  %59 = getelementptr inbounds nuw %"class.icu_77::SpoofImpl", ptr %9, i32 0, i32 5
  %60 = load ptr, ptr %59, align 8, !tbaa !28
  %61 = icmp eq ptr %60, null
  br i1 %61, label %62, label %64

62:                                               ; preds = %58, %53
  %63 = load ptr, ptr %6, align 8, !tbaa !10
  store i32 7, ptr %63, align 4, !tbaa !30
  br label %64

64:                                               ; preds = %62, %58
  %65 = load ptr, ptr %5, align 8, !tbaa !3
  %66 = getelementptr inbounds nuw %"class.icu_77::SpoofImpl", ptr %65, i32 0, i32 6
  %67 = load i32, ptr %66, align 8, !tbaa !29
  %68 = getelementptr inbounds nuw %"class.icu_77::SpoofImpl", ptr %9, i32 0, i32 6
  store i32 %67, ptr %68, align 8, !tbaa !29
  br label %69

69:                                               ; preds = %64, %20
  ret void

70:                                               ; preds = %21
  %71 = load ptr, ptr %7, align 8
  %72 = load i32, ptr %8, align 4
  %73 = insertvalue { ptr, i32 } poison, ptr %71, 0
  %74 = insertvalue { ptr, i32 } %73, i32 %72, 1
  resume { ptr, i32 } %74
}