; Function Attrs: mustprogress uwtable
define void @_ZN6icu_779SpoofImplC2ERKS0_R10UErrorCode(ptr noundef nonnull align 8 dereferenceable(44) initializes((0, 40)) %0, ptr noundef nonnull readonly align 8 captures(none) dereferenceable(44) %1, ptr noundef nonnull align 4 captures(none) dereferenceable(4) %2) unnamed_addr #1 align 2 personality ptr @__gxx_personality_v0 {
  %4 = getelementptr inbounds nuw i8, ptr %0, i64 8
  store i32 944111087, ptr %4, align 8, !tbaa !3
  store ptr getelementptr inbounds nuw inrange(-16, 24) (i8, ptr @_ZTVN6icu_779SpoofImplE, i64 16), ptr %0, align 8, !tbaa !8
  %5 = getelementptr inbounds nuw i8, ptr %0, i64 12
  store i32 65535, ptr %5, align 4, !tbaa !10
  %6 = getelementptr inbounds nuw i8, ptr %0, i64 16
  %7 = getelementptr inbounds nuw i8, ptr %0, i64 24
  %8 = getelementptr inbounds nuw i8, ptr %0, i64 32
  tail call void @llvm.memset.p0.i64(ptr noundef nonnull align 8 dereferenceable(24) %6, i8 0, i64 24, i1 false)
  %9 = load i32, ptr %2, align 4, !tbaa !19
  %10 = icmp slt i32 %9, 1
  br i1 %10, label %13, label %38

11:                                               ; preds = %25, %21
  %12 = landingpad { ptr, i32 }
          cleanup
  store i32 0, ptr %4, align 8, !tbaa !3
  tail call void @_ZN6icu_777UObjectD2Ev(ptr noundef nonnull align 8 dereferenceable(8) %0) #21
  resume { ptr, i32 } %12

13:                                               ; preds = %3
  %14 = getelementptr inbounds nuw i8, ptr %1, i64 12
  %15 = load i32, ptr %14, align 4, !tbaa !10
  store i32 %15, ptr %5, align 4, !tbaa !10
  %16 = getelementptr inbounds nuw i8, ptr %1, i64 16
  %17 = load ptr, ptr %16, align 8, !tbaa !23
  %.not10 = icmp eq ptr %17, null
  br i1 %.not10, label %21, label %18

18:                                               ; preds = %13
  %19 = getelementptr inbounds nuw i8, ptr %17, i64 28
  %20 = atomicrmw add ptr %19, i32 1 seq_cst, align 4
  store ptr %17, ptr %6, align 8, !tbaa !23
  br label %21

21:                                               ; preds = %18, %13
  %22 = getelementptr inbounds nuw i8, ptr %1, i64 24
  %23 = load ptr, ptr %22, align 8, !tbaa !21
  %24 = invoke noundef ptr @_ZNK6icu_7710UnicodeSet5cloneEv(ptr noundef nonnull align 8 dereferenceable(200) %23)
          to label %25 unwind label %11

25:                                               ; preds = %21
  store ptr %24, ptr %7, align 8, !tbaa !21
  %26 = getelementptr inbounds nuw i8, ptr %1, i64 32
  %27 = load ptr, ptr %26, align 8, !tbaa !22
  %28 = invoke ptr @uprv_strdup_77(ptr noundef %27)
          to label %29 unwind label %11

29:                                               ; preds = %25
  store ptr %28, ptr %8, align 8, !tbaa !22
  %30 = load ptr, ptr %7, align 8, !tbaa !21
  %31 = icmp eq ptr %30, null
  %32 = icmp eq ptr %28, null
  %or.cond = select i1 %31, i1 true, i1 %32
  br i1 %or.cond, label %33, label %34

33:                                               ; preds = %29
  store i32 7, ptr %2, align 4, !tbaa !19
  br label %34

34:                                               ; preds = %29, %33
  %35 = getelementptr inbounds nuw i8, ptr %1, i64 40
  %36 = load i32, ptr %35, align 8, !tbaa !18
  %37 = getelementptr inbounds nuw i8, ptr %0, i64 40
  store i32 %36, ptr %37, align 8, !tbaa !18
  br label %38

38:                                               ; preds = %3, %34
  ret void
}